target datalayout = "e-m:e-p270:32:32-p271:32:32-p272:64:64-i64:64-i128:128-f80:128-n8:16:32:64-S128"
target triple = "x86_64-pc-linux-gnu"

%"class.std::__1::shared_ptr.24" = type { ptr, ptr }
%class.anon.309 = type { ptr, %"class.std::__1::shared_ptr.24" }
%"class.std::__1::__function::__base" = type { ptr }
%"class.std::__1::__function::__func.1652" = type { %"class.std::__1::__function::__base", %"class.std::__1::__function::__alloc_func.1653" }
%"class.std::__1::__function::__alloc_func.1653" = type { %"class.std::__1::__compressed_pair.1654" }
%"class.std::__1::__compressed_pair.1654" = type { %"struct.std::__1::__compressed_pair_elem.1655" }
%"struct.std::__1::__compressed_pair_elem.1655" = type { %class.anon.309 }

; Function Attrs: mustprogress nounwind uwtable
define linkonce_odr hidden void @_ZNSt3__110shared_ptrIN3tev5ImageEEC2B8ne190000EDn(ptr noundef nonnull align 8 dereferenceable(16) %0, ptr %1) unnamed_addr #1 comdat align 2 {
  %3 = alloca ptr, align 8
  %4 = alloca ptr, align 8
  store ptr %0, ptr %3, align 8
  store ptr %1, ptr %4, align 8
  %5 = load ptr, ptr %3, align 8
  %6 = getelementptr inbounds %"class.std::__1::shared_ptr.24", ptr %5, i32 0, i32 0
  store ptr null, ptr %6, align 8
  %7 = getelementptr inbounds %"class.std::__1::shared_ptr.24", ptr %5, i32 0, i32 1
  store ptr null, ptr %7, align 8
  ret void
}

; Function Attrs: mustprogress uwtable
define internal void @"_ZZN3tev11ImageViewer11insertImageENSt3__110shared_ptrINS_5ImageEEEmbENK3$_1clEb"(ptr noundef nonnull align 8 dereferenceable(24) %0, i1 noundef zeroext %1) #4 align 2 personality ptr @__gxx_personality_v0 {
  %3 = alloca ptr, align 8
  %4 = alloca i8, align 1
  %5 = alloca %"class.std::__1::shared_ptr.24", align 8
  %6 = alloca ptr, align 8
  %7 = alloca i32, align 4
  store ptr %0, ptr %3, align 8
  %8 = zext i1 %1 to i8
  store i8 %8, ptr %4, align 1
  %9 = load ptr, ptr %3, align 8
  %10 = getelementptr inbounds %class.anon.309, ptr %9, i32 0, i32 0
  %11 = load ptr, ptr %10, align 8
  %12 = load i8, ptr %4, align 1
  %13 = trunc i8 %12 to i1
  br i1 %13, label %20, label %14

14:                                               ; preds = %2
  call void @_ZNSt3__110shared_ptrIN3tev5ImageEEC2B8ne190000EDn(ptr noundef nonnull align 8 dereferenceable(16) %5, ptr null) #11
  invoke void @_ZN3tev11ImageViewer15selectReferenceERKNSt3__110shared_ptrINS_5ImageEEE(ptr noundef nonnull align 16 dereferenceable(972) %11, ptr noundef nonnull align 8 dereferenceable(16) %5)
          to label %15 unwind label %16

15:                                               ; preds = %14
  call void @_ZNSt3__110shared_ptrIN3tev5ImageEED2B8ne190000Ev(ptr noundef nonnull align 8 dereferenceable(16) %5) #11
  br label %22

16:                                               ; preds = %14
  %17 = landingpad { ptr, i32 }
          cleanup
  %18 = extractvalue { ptr, i32 } %17, 0
  store ptr %18, ptr %6, align 8
  %19 = extractvalue { ptr, i32 } %17, 1
  store i32 %19, ptr %7, align 4
  call void @_ZNSt3__110shared_ptrIN3tev5ImageEED2B8ne190000Ev(ptr noundef nonnull align 8 dereferenceable(16) %5) #11
  br label %23

20:                                               ; preds = %2
  %21 = getelementptr inbounds %class.anon.309, ptr %9, i32 0, i32 1
  call void @_ZN3tev11ImageViewer15selectReferenceERKNSt3__110shared_ptrINS_5ImageEEE(ptr noundef nonnull align 16 dereferenceable(972) %11, ptr noundef nonnull align 8 dereferenceable(16) %21)
  br label %22

22:                                               ; preds = %20, %15
  ret void

23:                                               ; preds = %16
  %24 = load ptr, ptr %6, align 8
  %25 = load i32, ptr %7, align 4
  %26 = insertvalue { ptr, i32 } poison, ptr %24, 0
  %27 = insertvalue { ptr, i32 } %26, i32 %25, 1
  resume { ptr, i32 } %27
}

; Function Attrs: mustprogress uwtable
define internal void @"_ZNSt3__18__invokeB8ne190000IRZN3tev11ImageViewer11insertImageENS_10shared_ptrINS1_5ImageEEEmbE3$_1JbEEEDTclclsr3stdE7declvalIT_EEspclsr3stdE7declvalIT0_EEEEOS8_DpOS9_"(ptr noundef nonnull align 8 dereferenceable(24) %0, ptr noundef nonnull align 1 dereferenceable(1) %1) #4 {
  %3 = alloca ptr, align 8
  %4 = alloca ptr, align 8
  store ptr %0, ptr %3, align 8
  store ptr %1, ptr %4, align 8
  %5 = load ptr, ptr %3, align 8
  %6 = load ptr, ptr %4, align 8
  %7 = load i8, ptr %6, align 1
  %8 = trunc i8 %7 to i1
  call void @"_ZZN3tev11ImageViewer11insertImageENSt3__110shared_ptrINS_5ImageEEEmbENK3$_1clEb"(ptr noundef nonnull align 8 dereferenceable(24) %5, i1 noundef zeroext %8)
  ret void
}

; Function Attrs: mustprogress nounwind uwtable
define internal noundef nonnull align 8 dereferenceable(24) ptr @"_ZNSt3__122__compressed_pair_elemIZN3tev11ImageViewer11insertImageENS_10shared_ptrINS1_5ImageEEEmbE3$_1Li0ELb0EE5__getB8ne190000Ev"(ptr noundef nonnull align 8 dereferenceable(24) %0) #1 align 2 {
  %2 = alloca ptr, align 8
  store ptr %0, ptr %2, align 8
  %3 = load ptr, ptr %2, align 8
  %4 = getelementptr inbounds %"struct.std::__1::__compressed_pair_elem.1655", ptr %3, i32 0, i32 0
  ret ptr %4
}

; Function Attrs: mustprogress uwtable
define internal void @"_ZNSt3__128__invoke_void_return_wrapperIvLb1EE6__callB8ne190000IJRZN3tev11ImageViewer11insertImageENS_10shared_ptrINS3_5ImageEEEmbE3$_1bEEEvDpOT_"(ptr noundef nonnull align 8 dereferenceable(24) %0, ptr noundef nonnull align 1 dereferenceable(1) %1) #4 align 2 {
  %3 = alloca ptr, align 8
  %4 = alloca ptr, align 8
  store ptr %0, ptr %3, align 8
  store ptr %1, ptr %4, align 8
  %5 = load ptr, ptr %3, align 8
  %6 = load ptr, ptr %4, align 8
  call void @"_ZNSt3__18__invokeB8ne190000IRZN3tev11ImageViewer11insertImageENS_10shared_ptrINS1_5ImageEEEmbE3$_1JbEEEDTclclsr3stdE7declvalIT_EEspclsr3stdE7declvalIT0_EEEEOS8_DpOS9_"(ptr noundef nonnull align 8 dereferenceable(24) %5, ptr noundef nonnull align 1 dereferenceable(1) %6)
  ret void
}

; Function Attrs: mustprogress nounwind uwtable
define internal noundef nonnull align 8 dereferenceable(24) ptr @"_ZNSt3__117__compressed_pairIZN3tev11ImageViewer11insertImageENS_10shared_ptrINS1_5ImageEEEmbE3$_1NS_9allocatorIS6_EEE5firstB8ne190000Ev"(ptr noundef nonnull align 8 dereferenceable(24) %0) #1 align 2 {
  %2 = alloca ptr, align 8
  store ptr %0, ptr %2, align 8
  %3 = load ptr, ptr %2, align 8
  %4 = call noundef nonnull align 8 dereferenceable(24) ptr @"_ZNSt3__122__compressed_pair_elemIZN3tev11ImageViewer11insertImageENS_10shared_ptrINS1_5ImageEEEmbE3$_1Li0ELb0EE5__getB8ne190000Ev"(ptr noundef nonnull align 8 dereferenceable(24) %3) #11
  ret ptr %4
}

; Function Attrs: mustprogress uwtable
define internal void @"_ZNSt3__110__function12__alloc_funcIZN3tev11ImageViewer11insertImageENS_10shared_ptrINS2_5ImageEEEmbE3$_1NS_9allocatorIS7_EEFvbEEclB8ne190000EOb"(ptr noundef nonnull align 8 dereferenceable(24) %0, ptr noundef nonnull align 1 dereferenceable(1) %1) #4 align 2 {
  %3 = alloca ptr, align 8
  %4 = alloca ptr, align 8
  store ptr %0, ptr %3, align 8
  store ptr %1, ptr %4, align 8
  %5 = load ptr, ptr %3, align 8
  %6 = getelementptr inbounds %"class.std::__1::__function::__alloc_func.1653", ptr %5, i32 0, i32 0
  %7 = call noundef nonnull align 8 dereferenceable(24) ptr @"_ZNSt3__117__compressed_pairIZN3tev11ImageViewer11insertImageENS_10shared_ptrINS1_5ImageEEEmbE3$_1NS_9allocatorIS6_EEE5firstB8ne190000Ev"(ptr noundef nonnull align 8 dereferenceable(24) %6) #11
  %8 = load ptr, ptr %4, align 8
  call void @"_ZNSt3__128__invoke_void_return_wrapperIvLb1EE6__callB8ne190000IJRZN3tev11ImageViewer11insertImageENS_10shared_ptrINS3_5ImageEEEmbE3$_1bEEEvDpOT_"(ptr noundef nonnull align 8 dereferenceable(24) %7, ptr noundef nonnull align 1 dereferenceable(1) %8)
  ret void
}

; Function Attrs: mustprogress uwtable
define internal void @"_ZNSt3__110__function6__funcIZN3tev11ImageViewer11insertImageENS_10shared_ptrINS2_5ImageEEEmbE3$_1NS_9allocatorIS7_EEFvbEEclEOb"(ptr noundef nonnull align 8 dereferenceable(32) %0, ptr noundef nonnull align 1 dereferenceable(1) %1) unnamed_addr #4 align 2 {
  %3 = alloca ptr, align 8
  %4 = alloca ptr, align 8
  store ptr %0, ptr %3, align 8
  store ptr %1, ptr %4, align 8
  %5 = load ptr, ptr %3, align 8
  %6 = getelementptr inbounds %"class.std::__1::__function::__func.1652", ptr %5, i32 0, i32 1
  %7 = load ptr, ptr %4, align 8
  call void @"_ZNSt3__110__function12__alloc_funcIZN3tev11ImageViewer11insertImageENS_10shared_ptrINS2_5ImageEEEmbE3$_1NS_9allocatorIS7_EEFvbEEclB8ne190000EOb"(ptr noundef nonnull align 8 dereferenceable(24) %6, ptr noundef nonnull align 1 dereferenceable(1) %7)
  ret void
}