; Function Attrs: mustprogress uwtable
define internal void @"_ZNSt3__110__function6__funcIZN3tev11ImageViewer11insertImageENS_10shared_ptrINS2_5ImageEEEmbE3$_1NS_9allocatorIS7_EEFvbEEclEOb"(ptr nocapture noundef nonnull readonly align 8 dereferenceable(32) %0, ptr nocapture noundef nonnull readonly align 1 dereferenceable(1) %1) unnamed_addr #7 align 2 personality ptr @__gxx_personality_v0 {
  %3 = alloca %"class.std::__1::shared_ptr.24", align 8
  %4 = getelementptr inbounds i8, ptr %0, i64 8
  %.val = load i8, ptr %1, align 1
  %5 = and i8 %.val, 1
  %.not.i.i.i = icmp eq i8 %5, 0
  call void @llvm.lifetime.start.p0(i64 16, ptr nonnull %3)
  %6 = load ptr, ptr %4, align 8
  br i1 %.not.i.i.i, label %7, label %10

7:                                                ; preds = %2
  call void @llvm.memset.p0.i64(ptr noundef nonnull align 8 dereferenceable(16) %3, i8 0, i64 16, i1 false)
  invoke void @_ZN3tev11ImageViewer15selectReferenceERKNSt3__110shared_ptrINS_5ImageEEE(ptr noundef nonnull align 16 dereferenceable(972) %6, ptr noundef nonnull align 8 dereferenceable(16) %3)
          to label %"_ZNSt3__110__function12__alloc_funcIZN3tev11ImageViewer11insertImageENS_10shared_ptrINS2_5ImageEEEmbE3$_1NS_9allocatorIS7_EEFvbEEclB8ne190000EOb.exit" unwind label %8

8:                                                ; preds = %7
  %9 = landingpad { ptr, i32 }
          cleanup
  call void @_ZNSt3__110shared_ptrIN3tev5ImageEED2B8ne190000Ev(ptr noundef nonnull align 8 dereferenceable(16) %3) #39
  resume { ptr, i32 } %9

10:                                               ; preds = %2
  %11 = getelementptr inbounds i8, ptr %0, i64 16
  tail call void @_ZN3tev11ImageViewer15selectReferenceERKNSt3__110shared_ptrINS_5ImageEEE(ptr noundef nonnull align 16 dereferenceable(972) %6, ptr noundef nonnull align 8 dereferenceable(16) %11)
  br label %"_ZNSt3__110__function12__alloc_funcIZN3tev11ImageViewer11insertImageENS_10shared_ptrINS2_5ImageEEEmbE3$_1NS_9allocatorIS7_EEFvbEEclB8ne190000EOb.exit"

"_ZNSt3__110__function12__alloc_funcIZN3tev11ImageViewer11insertImageENS_10shared_ptrINS2_5ImageEEEmbE3$_1NS_9allocatorIS7_EEFvbEEclB8ne190000EOb.exit": ; preds = %7, %10
  call void @llvm.lifetime.end.p0(i64 16, ptr nonnull %3)
  ret void
}